; Function Attrs: mustprogress nounwind uwtable
define hidden void @_ZN11XBarrierSet16on_thread_attachEP6Thread(ptr nocapture nonnull readnone align 8 %0, ptr noundef %1) unnamed_addr #0 align 2 {
  %3 = load i64, ptr @XAddressBadMask, align 8
  %4 = getelementptr inbounds i8, ptr %1, i64 40
  store i64 %3, ptr %4, align 8
  %5 = load ptr, ptr %1, align 8
  %6 = getelementptr inbounds i8, ptr %5, i64 56
  %7 = load ptr, ptr %6, align 8
  %8 = tail call noundef zeroext i1 %7(ptr noundef nonnull align 8 dereferenceable(888) %1) #5
  br i1 %8, label %9, label %11

9:                                                ; preds = %2
  %10 = tail call noundef ptr @_Z12AllocateHeapm8MEMFLAGSN17AllocFailStrategy13AllocFailEnumE(i64 noundef 272, i8 noundef zeroext 2, i32 noundef 0) #5
  tail call void @_ZN15XStackWatermarkC1EP10JavaThread(ptr noundef nonnull align 8 dereferenceable(272) %10, ptr noundef nonnull %1) #5
  tail call void @_ZN17StackWatermarkSet13add_watermarkEP10JavaThreadP14StackWatermark(ptr noundef nonnull %1, ptr noundef nonnull %10) #5
  br label %11

11:                                               ; preds = %9, %2
  ret void
}